target datalayout = "e-m:e-p270:32:32-p271:32:32-p272:64:64-i64:64-i128:128-f80:128-n8:16:32:64-S128"
target triple = "x86_64-pc-linux-gnu"

%struct.wtap = type { ptr, ptr, i8, i32, i32, ptr, ptr, ptr, i32, ptr, ptr, ptr, ptr, ptr, ptr, ptr, ptr, ptr, ptr, i32, i32, ptr, ptr, ptr, ptr }

; Function Attrs: null_pointer_is_valid sspstrong uwtable
define internal zeroext i1 @vwr_seek_read(ptr noundef %0, i64 noundef %1, ptr noundef %2, ptr noundef %3, ptr noundef %4) #0 {
  %6 = alloca i1, align 1
  %7 = alloca ptr, align 8
  %8 = alloca i64, align 8
  %9 = alloca ptr, align 8
  %10 = alloca ptr, align 8
  %11 = alloca ptr, align 8
  %12 = alloca ptr, align 8
  %13 = alloca i32, align 4
  %14 = alloca i32, align 4
  %15 = alloca i32, align 4
  %16 = alloca i32, align 4
  store ptr %0, ptr %7, align 8
  store i64 %1, ptr %8, align 8
  store ptr %2, ptr %9, align 8
  store ptr %3, ptr %10, align 8
  store ptr %4, ptr %11, align 8
  call void @llvm.lifetime.start.p0(i64 8, ptr %12) #13
  %17 = load ptr, ptr %7, align 8
  %18 = getelementptr inbounds nuw %struct.wtap, ptr %17, i32 0, i32 13
  %19 = load ptr, ptr %18, align 8
  store ptr %19, ptr %12, align 8
  call void @llvm.lifetime.start.p0(i64 4, ptr %13) #13
  call void @llvm.lifetime.start.p0(i64 4, ptr %14) #13
  store i32 0, ptr %14, align 4
  call void @llvm.lifetime.start.p0(i64 4, ptr %15) #13
  store i32 0, ptr %15, align 4
  %20 = load ptr, ptr %7, align 8
  %21 = getelementptr inbounds nuw %struct.wtap, ptr %20, i32 0, i32 1
  %22 = load ptr, ptr %21, align 8
  %23 = load i64, ptr %8, align 8
  %24 = load ptr, ptr %10, align 8
  %25 = call i64 @file_seek(ptr noundef %22, i64 noundef %23, i32 noundef 0, ptr noundef %24)
  %26 = icmp eq i64 %25, -1
  br i1 %26, label %27, label %28

27:                                               ; preds = %5
  store i1 false, ptr %6, align 1
  store i32 1, ptr %16, align 4
  br label %49

28:                                               ; preds = %5
  %29 = load ptr, ptr %12, align 8
  %30 = load ptr, ptr %7, align 8
  %31 = getelementptr inbounds nuw %struct.wtap, ptr %30, i32 0, i32 1
  %32 = load ptr, ptr %31, align 8
  %33 = load ptr, ptr %10, align 8
  %34 = load ptr, ptr %11, align 8
  %35 = call zeroext i1 @vwr_read_rec_header(ptr noundef %29, ptr noundef %32, ptr noundef %13, ptr noundef %14, ptr noundef %15, ptr noundef %33, ptr noundef %34)
  br i1 %35, label %37, label %36

36:                                               ; preds = %28
  store i1 false, ptr %6, align 1
  store i32 1, ptr %16, align 4
  br label %49

37:                                               ; preds = %28
  %38 = load ptr, ptr %7, align 8
  %39 = getelementptr inbounds nuw %struct.wtap, ptr %38, i32 0, i32 1
  %40 = load ptr, ptr %39, align 8
  %41 = load i32, ptr %13, align 4
  %42 = load ptr, ptr %9, align 8
  %43 = load ptr, ptr %12, align 8
  %44 = load i32, ptr %14, align 4
  %45 = load i32, ptr %15, align 4
  %46 = load ptr, ptr %10, align 8
  %47 = load ptr, ptr %11, align 8
  %48 = call zeroext i1 @vwr_process_rec_data(ptr noundef %40, i32 noundef %41, ptr noundef %42, ptr noundef %43, i32 noundef %44, i32 noundef %45, ptr noundef %46, ptr noundef %47)
  store i1 %48, ptr %6, align 1
  store i32 1, ptr %16, align 4
  br label %49

49:                                               ; preds = %37, %36, %27
  call void @llvm.lifetime.end.p0(i64 4, ptr %15) #13
  call void @llvm.lifetime.end.p0(i64 4, ptr %14) #13
  call void @llvm.lifetime.end.p0(i64 4, ptr %13) #13
  call void @llvm.lifetime.end.p0(i64 8, ptr %12) #13
  %50 = load i1, ptr %6, align 1
  ret i1 %50
}