; Function Attrs: null_pointer_is_valid sspstrong uwtable
define internal noundef zeroext i1 @vwr_seek_read(ptr noundef readonly captures(none) %0, i64 noundef %1, ptr noundef %2, ptr noundef %3, ptr noundef %4) #0 {
  %6 = alloca i32, align 4
  %7 = alloca i32, align 4
  %8 = alloca i32, align 4
  %9 = getelementptr inbounds nuw i8, ptr %0, i64 96
  %10 = load ptr, ptr %9, align 8
  call void @llvm.lifetime.start.p0(i64 4, ptr nonnull %6) #8
  call void @llvm.lifetime.start.p0(i64 4, ptr nonnull %7) #8
  store i32 0, ptr %7, align 4
  call void @llvm.lifetime.start.p0(i64 4, ptr nonnull %8) #8
  store i32 0, ptr %8, align 4
  %11 = getelementptr inbounds nuw i8, ptr %0, i64 8
  %12 = load ptr, ptr %11, align 8
  %13 = tail call i64 @file_seek(ptr noundef %12, i64 noundef %1, i32 noundef 0, ptr noundef %3)
  %14 = icmp eq i64 %13, -1
  br i1 %14, label %24, label %15

15:                                               ; preds = %5
  %16 = load ptr, ptr %11, align 8
  %17 = call fastcc zeroext i1 @vwr_read_rec_header(ptr noundef %10, ptr noundef %16, ptr noundef nonnull %6, ptr noundef nonnull %7, ptr noundef nonnull %8, ptr noundef %3, ptr noundef %4)
  br i1 %17, label %18, label %24

18:                                               ; preds = %15
  %19 = load ptr, ptr %11, align 8
  %20 = load i32, ptr %6, align 4
  %21 = load i32, ptr %7, align 4
  %22 = load i32, ptr %8, align 4
  %23 = tail call fastcc zeroext i1 @vwr_process_rec_data(ptr noundef %19, i32 noundef %20, ptr noundef %2, ptr noundef %10, i32 noundef %21, i32 noundef %22, ptr noundef %3, ptr noundef %4)
  br label %24

24:                                               ; preds = %15, %5, %18
  %.0 = phi i1 [ %23, %18 ], [ false, %5 ], [ false, %15 ]
  call void @llvm.lifetime.end.p0(i64 4, ptr nonnull %8) #8
  call void @llvm.lifetime.end.p0(i64 4, ptr nonnull %7) #8
  call void @llvm.lifetime.end.p0(i64 4, ptr nonnull %6) #8
  ret i1 %.0
}